target datalayout = "e-m:e-p270:32:32-p271:32:32-p272:64:64-i64:64-i128:128-f80:128-n8:16:32:64-S128"
target triple = "x86_64-pc-linux-gnu"

%"class.pxrInternal_v0_24__pxrReserved__::SdfLayerOffset" = type { double, double }
%"class.pxrInternal_v0_24__pxrReserved__::PcpMapFunction" = type { %"struct.pxrInternal_v0_24__pxrReserved__::PcpMapFunction::_Data", %"class.pxrInternal_v0_24__pxrReserved__::SdfLayerOffset" }
%"struct.pxrInternal_v0_24__pxrReserved__::PcpMapFunction::_Data" = type <{ %union.anon, i32, i8, [3 x i8] }>
%union.anon = type { %"class.std::shared_ptr", [16 x i8] }
%"class.std::shared_ptr" = type { %"class.std::__shared_ptr" }
%"class.std::__shared_ptr" = type { ptr, %"class.std::__shared_count" }
%"class.std::__shared_count" = type { ptr }
%"struct.std::pair" = type { %"class.pxrInternal_v0_24__pxrReserved__::SdfPath", %"class.pxrInternal_v0_24__pxrReserved__::SdfPath" }
%"class.pxrInternal_v0_24__pxrReserved__::SdfPath" = type { %"struct.pxrInternal_v0_24__pxrReserved__::Sdf_PathNodeHandleImpl", %"struct.pxrInternal_v0_24__pxrReserved__::Sdf_PathNodeHandleImpl.0" }
%"struct.pxrInternal_v0_24__pxrReserved__::Sdf_PathNodeHandleImpl" = type { %"struct.pxrInternal_v0_24__pxrReserved__::Sdf_Pool<pxrInternal_v0_24__pxrReserved__::Sdf_PathPrimTag, 24, 8>::Handle" }
%"struct.pxrInternal_v0_24__pxrReserved__::Sdf_Pool<pxrInternal_v0_24__pxrReserved__::Sdf_PathPrimTag, 24, 8>::Handle" = type { i32 }
%"struct.pxrInternal_v0_24__pxrReserved__::Sdf_PathNodeHandleImpl.0" = type { %"struct.pxrInternal_v0_24__pxrReserved__::Sdf_Pool<pxrInternal_v0_24__pxrReserved__::Sdf_PathPropTag, 24, 8>::Handle" }
%"struct.pxrInternal_v0_24__pxrReserved__::Sdf_Pool<pxrInternal_v0_24__pxrReserved__::Sdf_PathPropTag, 24, 8>::Handle" = type { i32 }

; Function Attrs: mustprogress nounwind uwtable
define linkonce_odr noundef ptr @_ZNKSt12__shared_ptrISt4pairIN32pxrInternal_v0_24__pxrReserved__7SdfPathES2_ELN9__gnu_cxx12_Lock_policyE2EE3getEv(ptr noundef nonnull align 8 dereferenceable(16) %0) #2 comdat align 2 {
  %2 = alloca ptr, align 8
  store ptr %0, ptr %2, align 8
  %3 = load ptr, ptr %2, align 8
  %4 = getelementptr inbounds nuw %"class.std::__shared_ptr", ptr %3, i32 0, i32 0
  %5 = load ptr, ptr %4, align 8
  ret ptr %5
}

; Function Attrs: mustprogress nounwind uwtable
define linkonce_odr noundef ptr @_ZNK32pxrInternal_v0_24__pxrReserved__14PcpMapFunction5_Data5beginEv(ptr noundef nonnull align 8 dereferenceable(40) %0) #2 comdat align 2 {
  %2 = alloca ptr, align 8
  store ptr %0, ptr %2, align 8
  %3 = load ptr, ptr %2, align 8
  %4 = getelementptr inbounds nuw %"struct.pxrInternal_v0_24__pxrReserved__::PcpMapFunction::_Data", ptr %3, i32 0, i32 1
  %5 = load i32, ptr %4, align 8
  %6 = icmp sle i32 %5, 2
  br i1 %6, label %7, label %10

7:                                                ; preds = %1
  %8 = getelementptr inbounds nuw %"struct.pxrInternal_v0_24__pxrReserved__::PcpMapFunction::_Data", ptr %3, i32 0, i32 0
  %9 = getelementptr inbounds [2 x %"struct.std::pair"], ptr %8, i64 0, i64 0
  br label %13

10:                                               ; preds = %1
  %11 = getelementptr inbounds nuw %"struct.pxrInternal_v0_24__pxrReserved__::PcpMapFunction::_Data", ptr %3, i32 0, i32 0
  %12 = call noundef ptr @_ZNKSt12__shared_ptrISt4pairIN32pxrInternal_v0_24__pxrReserved__7SdfPathES2_ELN9__gnu_cxx12_Lock_policyE2EE3getEv(ptr noundef nonnull align 8 dereferenceable(16) %11) #7
  br label %13

13:                                               ; preds = %10, %7
  %14 = phi ptr [ %9, %7 ], [ %12, %10 ]
  ret ptr %14
}

; Function Attrs: mustprogress uwtable
define void @_ZNK32pxrInternal_v0_24__pxrReserved__14PcpMapFunction17MapTargetToSourceERKNS_7SdfPathE(ptr dead_on_unwind noalias writable sret(%"class.pxrInternal_v0_24__pxrReserved__::SdfPath") align 4 %0, ptr noundef nonnull align 8 dereferenceable(56) %1, ptr noundef nonnull align 4 dereferenceable(8) %2) #0 align 2 {
  %4 = alloca ptr, align 8
  %5 = alloca ptr, align 8
  %6 = alloca ptr, align 8
  store ptr %0, ptr %4, align 8
  store ptr %1, ptr %5, align 8
  store ptr %2, ptr %6, align 8
  %7 = load ptr, ptr %5, align 8
  %8 = load ptr, ptr %6, align 8
  %9 = getelementptr inbounds nuw %"class.pxrInternal_v0_24__pxrReserved__::PcpMapFunction", ptr %7, i32 0, i32 0
  %10 = call noundef ptr @_ZNK32pxrInternal_v0_24__pxrReserved__14PcpMapFunction5_Data5beginEv(ptr noundef nonnull align 8 dereferenceable(40) %9)
  %11 = getelementptr inbounds nuw %"class.pxrInternal_v0_24__pxrReserved__::PcpMapFunction", ptr %7, i32 0, i32 0
  %12 = getelementptr inbounds nuw %"struct.pxrInternal_v0_24__pxrReserved__::PcpMapFunction::_Data", ptr %11, i32 0, i32 1
  %13 = load i32, ptr %12, align 8
  %14 = getelementptr inbounds nuw %"class.pxrInternal_v0_24__pxrReserved__::PcpMapFunction", ptr %7, i32 0, i32 0
  %15 = getelementptr inbounds nuw %"struct.pxrInternal_v0_24__pxrReserved__::PcpMapFunction::_Data", ptr %14, i32 0, i32 2
  %16 = load i8, ptr %15, align 4
  %17 = trunc i8 %16 to i1
  call void @_ZN32pxrInternal_v0_24__pxrReserved__L4_MapERKNS_7SdfPathEPKSt4pairIS0_S0_Eibb(ptr dead_on_unwind writable sret(%"class.pxrInternal_v0_24__pxrReserved__::SdfPath") align 4 %0, ptr noundef nonnull align 4 dereferenceable(8) %8, ptr noundef %10, i32 noundef %13, i1 noundef zeroext %17, i1 noundef zeroext true)
  ret void
}