; Function Attrs: mustprogress uwtable
define void @_ZNK32pxrInternal_v0_24__pxrReserved__14PcpMapFunction17MapTargetToSourceERKNS_7SdfPathE(ptr dead_on_unwind noalias nocapture writable writeonly sret(%"class.pxrInternal_v0_24__pxrReserved__::SdfPath") align 4 %0, ptr noundef nonnull align 8 dereferenceable(56) %1, ptr noundef nonnull align 4 dereferenceable(8) %2) local_unnamed_addr #0 align 2 {
  %4 = getelementptr inbounds nuw i8, ptr %1, i64 32
  %5 = load i32, ptr %4, align 8
  %6 = icmp slt i32 %5, 3
  %7 = load ptr, ptr %1, align 8
  %spec.select.i = select i1 %6, ptr %1, ptr %7
  %8 = getelementptr inbounds nuw i8, ptr %1, i64 36
  %9 = load i8, ptr %8, align 4
  %10 = trunc i8 %9 to i1
  tail call fastcc void @_ZN32pxrInternal_v0_24__pxrReserved__L4_MapERKNS_7SdfPathEPKSt4pairIS0_S0_Eibb(ptr dead_on_unwind noalias writable align 4 %0, ptr noundef nonnull align 4 dereferenceable(8) %2, ptr noundef %spec.select.i, i32 noundef %5, i1 noundef zeroext %10, i1 noundef zeroext true)
  ret void
}